target datalayout = "e-m:e-p270:32:32-p271:32:32-p272:64:64-i64:64-i128:128-f80:128-n8:16:32:64-S128"
target triple = "x86_64-pc-linux-gnu"

%struct.Vec_Int_t_ = type { i32, i32, ptr }

@.str.2 = private unnamed_addr constant [34 x i8] c"Collected %d outputs to extract.\0A\00", align 1

; Function Attrs: inlinehint nounwind uwtable
define internal void @Vec_IntFree(ptr noundef %0) #2 {
  %2 = alloca ptr, align 8
  store ptr %0, ptr %2, align 8, !tbaa !33
  %3 = load ptr, ptr %2, align 8, !tbaa !33
  %4 = getelementptr inbounds nuw %struct.Vec_Int_t_, ptr %3, i32 0, i32 2
  %5 = load ptr, ptr %4, align 8, !tbaa !44
  %6 = icmp ne ptr %5, null
  br i1 %6, label %7, label %13

7:                                                ; preds = %1
  %8 = load ptr, ptr %2, align 8, !tbaa !33
  %9 = getelementptr inbounds nuw %struct.Vec_Int_t_, ptr %8, i32 0, i32 2
  %10 = load ptr, ptr %9, align 8, !tbaa !44
  call void @free(ptr noundef %10) #12
  %11 = load ptr, ptr %2, align 8, !tbaa !33
  %12 = getelementptr inbounds nuw %struct.Vec_Int_t_, ptr %11, i32 0, i32 2
  store ptr null, ptr %12, align 8, !tbaa !44
  br label %14

13:                                               ; preds = %1
  br label %14

14:                                               ; preds = %13, %7
  %15 = load ptr, ptr %2, align 8, !tbaa !33
  %16 = icmp ne ptr %15, null
  br i1 %16, label %17, label %19

17:                                               ; preds = %14
  %18 = load ptr, ptr %2, align 8, !tbaa !33
  call void @free(ptr noundef %18) #12
  store ptr null, ptr %2, align 8, !tbaa !33
  br label %20

19:                                               ; preds = %14
  br label %20

20:                                               ; preds = %19, %17
  ret void
}

; Function Attrs: inlinehint nounwind uwtable
define internal i32 @Vec_IntSize(ptr noundef %0) #2 {
  %2 = alloca ptr, align 8
  store ptr %0, ptr %2, align 8, !tbaa !33
  %3 = load ptr, ptr %2, align 8, !tbaa !33
  %4 = getelementptr inbounds nuw %struct.Vec_Int_t_, ptr %3, i32 0, i32 1
  %5 = load i32, ptr %4, align 4, !tbaa !42
  ret i32 %5
}

; Function Attrs: nounwind uwtable
define ptr @Gia_ManExtractWindow(ptr noundef %0, i32 noundef %1, i32 noundef %2, i32 noundef %3) #0 {
  %5 = alloca ptr, align 8
  %6 = alloca ptr, align 8
  %7 = alloca i32, align 4
  %8 = alloca i32, align 4
  %9 = alloca i32, align 4
  %10 = alloca ptr, align 8
  %11 = alloca ptr, align 8
  %12 = alloca i32, align 4
  store ptr %0, ptr %6, align 8, !tbaa !3
  store i32 %1, ptr %7, align 4, !tbaa !8
  store i32 %2, ptr %8, align 4, !tbaa !8
  store i32 %3, ptr %9, align 4, !tbaa !8
  call void @llvm.lifetime.start.p0(i64 8, ptr %10) #12
  call void @llvm.lifetime.start.p0(i64 8, ptr %11) #12
  %13 = load ptr, ptr %6, align 8, !tbaa !3
  %14 = load i32, ptr %7, align 4, !tbaa !8
  %15 = load i32, ptr %8, align 4, !tbaa !8
  %16 = call ptr @Gia_ManFindLatest(ptr noundef %13, i32 noundef %14, i32 noundef %15)
  store ptr %16, ptr %10, align 8, !tbaa !33
  %17 = load i32, ptr %9, align 4, !tbaa !8
  %18 = icmp ne i32 %17, 0
  br i1 %18, label %19, label %23

19:                                               ; preds = %4
  %20 = load ptr, ptr %10, align 8, !tbaa !33
  %21 = call i32 @Vec_IntSize(ptr noundef %20)
  %22 = call i32 (ptr, ...) @printf(ptr noundef @.str.2, i32 noundef %21)
  br label %23

23:                                               ; preds = %19, %4
  %24 = load ptr, ptr %10, align 8, !tbaa !33
  %25 = call i32 @Vec_IntSize(ptr noundef %24)
  %26 = icmp eq i32 %25, 0
  br i1 %26, label %27, label %31

27:                                               ; preds = %23
  %28 = load ptr, ptr %10, align 8, !tbaa !33
  call void @Vec_IntFree(ptr noundef %28)
  %29 = load ptr, ptr %6, align 8, !tbaa !3
  %30 = call ptr @Gia_ManDup(ptr noundef %29)
  store ptr %30, ptr %5, align 8
  store i32 1, ptr %12, align 4
  br label %37

31:                                               ; preds = %23
  %32 = load ptr, ptr %6, align 8, !tbaa !3
  %33 = load ptr, ptr %10, align 8, !tbaa !33
  %34 = call ptr @Gia_ManExtractWin(ptr noundef %32, ptr noundef %33, i32 noundef 1)
  store ptr %34, ptr %11, align 8, !tbaa !3
  %35 = load ptr, ptr %10, align 8, !tbaa !33
  call void @Vec_IntFree(ptr noundef %35)
  %36 = load ptr, ptr %11, align 8, !tbaa !3
  store ptr %36, ptr %5, align 8
  store i32 1, ptr %12, align 4
  br label %37

37:                                               ; preds = %31, %27
  call void @llvm.lifetime.end.p0(i64 8, ptr %11) #12
  call void @llvm.lifetime.end.p0(i64 8, ptr %10) #12
  %38 = load ptr, ptr %5, align 8
  ret ptr %38
}