; Function Attrs: nounwind uwtable
define ptr @Gia_ManExtractWindow(ptr noundef %0, i32 noundef %1, i32 noundef %2, i32 noundef %3) local_unnamed_addr #2 {
  %5 = tail call ptr @Gia_ManFindLatest(ptr noundef %0, i32 noundef %1, i32 noundef %2)
  %.not = icmp eq i32 %3, 0
  %.phi.trans.insert = getelementptr i8, ptr %5, i64 4
  %.val.pre = load i32, ptr %.phi.trans.insert, align 4, !tbaa !31
  br i1 %.not, label %._crit_edge, label %6

6:                                                ; preds = %4
  %7 = tail call i32 (ptr, ...) @printf(ptr noundef nonnull dereferenceable(1) @.str.2, i32 noundef %.val.pre)
  br label %._crit_edge

._crit_edge:                                      ; preds = %4, %6
  %8 = icmp eq i32 %.val.pre, 0
  br i1 %8, label %9, label %14

9:                                                ; preds = %._crit_edge
  %10 = getelementptr inbounds nuw i8, ptr %5, i64 8
  %11 = load ptr, ptr %10, align 8, !tbaa !33
  %.not.i = icmp eq ptr %11, null
  br i1 %.not.i, label %Vec_IntFree.exit, label %12

12:                                               ; preds = %9
  tail call void @free(ptr noundef nonnull %11) #17
  br label %Vec_IntFree.exit

Vec_IntFree.exit:                                 ; preds = %9, %12
  tail call void @free(ptr noundef nonnull %5) #17
  %13 = tail call ptr @Gia_ManDup(ptr noundef %0) #17
  br label %19

14:                                               ; preds = %._crit_edge
  %15 = tail call ptr @Gia_ManExtractWin(ptr noundef %0, ptr noundef nonnull %5, i32 noundef 1)
  %16 = getelementptr inbounds nuw i8, ptr %5, i64 8
  %17 = load ptr, ptr %16, align 8, !tbaa !33
  %.not.i13 = icmp eq ptr %17, null
  br i1 %.not.i13, label %Vec_IntFree.exit14, label %18

18:                                               ; preds = %14
  tail call void @free(ptr noundef nonnull %17) #17
  br label %Vec_IntFree.exit14

Vec_IntFree.exit14:                               ; preds = %14, %18
  tail call void @free(ptr noundef nonnull %5) #17
  br label %19

19:                                               ; preds = %Vec_IntFree.exit14, %Vec_IntFree.exit
  %.0 = phi ptr [ %13, %Vec_IntFree.exit ], [ %15, %Vec_IntFree.exit14 ]
  ret ptr %.0
}